target datalayout = "e-m:e-p270:32:32-p271:32:32-p272:64:64-i64:64-i128:128-f80:128-n8:16:32:64-S128"
target triple = "x86_64-pc-linux-gnu"

%"class.google::protobuf::strings::ByteSource" = type { ptr }
%"class.google::protobuf::strings::LimitByteSource" = type { %"class.google::protobuf::strings::ByteSource", ptr, i64 }

; Function Attrs: mustprogress uwtable
define noundef i64 @_ZNK6google8protobuf7strings15LimitByteSource9AvailableEv(ptr noundef nonnull align 8 dereferenceable(24) %0) unnamed_addr #4 align 2 {
  %2 = alloca ptr, align 8
  %3 = alloca i64, align 8
  store ptr %0, ptr %2, align 8
  %4 = load ptr, ptr %2, align 8
  %5 = getelementptr inbounds %"class.google::protobuf::strings::LimitByteSource", ptr %4, i32 0, i32 1
  %6 = load ptr, ptr %5, align 8
  %7 = load ptr, ptr %6, align 8
  %8 = getelementptr inbounds ptr, ptr %7, i64 2
  %9 = load ptr, ptr %8, align 8
  %10 = call noundef i64 %9(ptr noundef nonnull align 8 dereferenceable(8) %6)
  store i64 %10, ptr %3, align 8
  %11 = load i64, ptr %3, align 8
  %12 = getelementptr inbounds %"class.google::protobuf::strings::LimitByteSource", ptr %4, i32 0, i32 2
  %13 = load i64, ptr %12, align 8
  %14 = icmp ugt i64 %11, %13
  br i1 %14, label %15, label %18

15:                                               ; preds = %1
  %16 = getelementptr inbounds %"class.google::protobuf::strings::LimitByteSource", ptr %4, i32 0, i32 2
  %17 = load i64, ptr %16, align 8
  store i64 %17, ptr %3, align 8
  br label %18

18:                                               ; preds = %15, %1
  %19 = load i64, ptr %3, align 8
  ret i64 %19
}