; Function Attrs: mustprogress uwtable
define noundef i64 @_ZNK6google8protobuf7strings15LimitByteSource9AvailableEv(ptr nocapture noundef nonnull readonly align 8 dereferenceable(24) %0) unnamed_addr #3 align 2 {
  %2 = getelementptr inbounds i8, ptr %0, i64 8
  %3 = load ptr, ptr %2, align 8
  %4 = load ptr, ptr %3, align 8
  %5 = getelementptr inbounds i8, ptr %4, i64 16
  %6 = load ptr, ptr %5, align 8
  %7 = tail call noundef i64 %6(ptr noundef nonnull align 8 dereferenceable(8) %3)
  %8 = getelementptr inbounds i8, ptr %0, i64 16
  %9 = load i64, ptr %8, align 8
  %spec.select = tail call i64 @llvm.umin.i64(i64 %7, i64 %9)
  ret i64 %spec.select
}